target datalayout = "e-m:e-p270:32:32-p271:32:32-p272:64:64-i64:64-i128:128-f80:128-n8:16:32:64-S128"
target triple = "x86_64-pc-linux-gnu"

@_ZZ11duAppendBoxP11duDebugDrawffffffPKjE4inds = internal constant [24 x i8] c"\07\06\05\04\00\01\02\03\01\05\06\02\03\07\04\00\02\06\07\03\00\04\05\01", align 16

; Function Attrs: mustprogress uwtable
define void @_Z11duAppendBoxP11duDebugDrawffffffPKj(ptr noundef %0, float noundef %1, float noundef %2, float noundef %3, float noundef %4, float noundef %5, float noundef %6, ptr noundef %7) #2 {
  %9 = alloca ptr, align 8
  %10 = alloca float, align 4
  %11 = alloca float, align 4
  %12 = alloca float, align 4
  %13 = alloca float, align 4
  %14 = alloca float, align 4
  %15 = alloca float, align 4
  %16 = alloca ptr, align 8
  %17 = alloca [24 x float], align 16
  %18 = alloca ptr, align 8
  %19 = alloca i32, align 4
  store ptr %0, ptr %9, align 8
  store float %1, ptr %10, align 4
  store float %2, ptr %11, align 4
  store float %3, ptr %12, align 4
  store float %4, ptr %13, align 4
  store float %5, ptr %14, align 4
  store float %6, ptr %15, align 4
  store ptr %7, ptr %16, align 8
  %20 = load ptr, ptr %9, align 8
  %21 = icmp ne ptr %20, null
  br i1 %21, label %23, label %22

22:                                               ; preds = %8
  br label %147

23:                                               ; preds = %8
  %24 = getelementptr inbounds [24 x float], ptr %17, i64 0, i64 0
  %25 = load float, ptr %10, align 4
  store float %25, ptr %24, align 4
  %26 = getelementptr inbounds float, ptr %24, i64 1
  %27 = load float, ptr %11, align 4
  store float %27, ptr %26, align 4
  %28 = getelementptr inbounds float, ptr %26, i64 1
  %29 = load float, ptr %12, align 4
  store float %29, ptr %28, align 4
  %30 = getelementptr inbounds float, ptr %28, i64 1
  %31 = load float, ptr %13, align 4
  store float %31, ptr %30, align 4
  %32 = getelementptr inbounds float, ptr %30, i64 1
  %33 = load float, ptr %11, align 4
  store float %33, ptr %32, align 4
  %34 = getelementptr inbounds float, ptr %32, i64 1
  %35 = load float, ptr %12, align 4
  store float %35, ptr %34, align 4
  %36 = getelementptr inbounds float, ptr %34, i64 1
  %37 = load float, ptr %13, align 4
  store float %37, ptr %36, align 4
  %38 = getelementptr inbounds float, ptr %36, i64 1
  %39 = load float, ptr %11, align 4
  store float %39, ptr %38, align 4
  %40 = getelementptr inbounds float, ptr %38, i64 1
  %41 = load float, ptr %15, align 4
  store float %41, ptr %40, align 4
  %42 = getelementptr inbounds float, ptr %40, i64 1
  %43 = load float, ptr %10, align 4
  store float %43, ptr %42, align 4
  %44 = getelementptr inbounds float, ptr %42, i64 1
  %45 = load float, ptr %11, align 4
  store float %45, ptr %44, align 4
  %46 = getelementptr inbounds float, ptr %44, i64 1
  %47 = load float, ptr %15, align 4
  store float %47, ptr %46, align 4
  %48 = getelementptr inbounds float, ptr %46, i64 1
  %49 = load float, ptr %10, align 4
  store float %49, ptr %48, align 4
  %50 = getelementptr inbounds float, ptr %48, i64 1
  %51 = load float, ptr %14, align 4
  store float %51, ptr %50, align 4
  %52 = getelementptr inbounds float, ptr %50, i64 1
  %53 = load float, ptr %12, align 4
  store float %53, ptr %52, align 4
  %54 = getelementptr inbounds float, ptr %52, i64 1
  %55 = load float, ptr %13, align 4
  store float %55, ptr %54, align 4
  %56 = getelementptr inbounds float, ptr %54, i64 1
  %57 = load float, ptr %14, align 4
  store float %57, ptr %56, align 4
  %58 = getelementptr inbounds float, ptr %56, i64 1
  %59 = load float, ptr %12, align 4
  store float %59, ptr %58, align 4
  %60 = getelementptr inbounds float, ptr %58, i64 1
  %61 = load float, ptr %13, align 4
  store float %61, ptr %60, align 4
  %62 = getelementptr inbounds float, ptr %60, i64 1
  %63 = load float, ptr %14, align 4
  store float %63, ptr %62, align 4
  %64 = getelementptr inbounds float, ptr %62, i64 1
  %65 = load float, ptr %15, align 4
  store float %65, ptr %64, align 4
  %66 = getelementptr inbounds float, ptr %64, i64 1
  %67 = load float, ptr %10, align 4
  store float %67, ptr %66, align 4
  %68 = getelementptr inbounds float, ptr %66, i64 1
  %69 = load float, ptr %14, align 4
  store float %69, ptr %68, align 4
  %70 = getelementptr inbounds float, ptr %68, i64 1
  %71 = load float, ptr %15, align 4
  store float %71, ptr %70, align 4
  store ptr @_ZZ11duAppendBoxP11duDebugDrawffffffPKjE4inds, ptr %18, align 8
  store i32 0, ptr %19, align 4
  br label %72

72:                                               ; preds = %144, %23
  %73 = load i32, ptr %19, align 4
  %74 = icmp slt i32 %73, 6
  br i1 %74, label %75, label %147

75:                                               ; preds = %72
  %76 = load ptr, ptr %9, align 8
  %77 = load ptr, ptr %18, align 8
  %78 = load i8, ptr %77, align 1
  %79 = zext i8 %78 to i32
  %80 = mul nsw i32 %79, 3
  %81 = sext i32 %80 to i64
  %82 = getelementptr inbounds [24 x float], ptr %17, i64 0, i64 %81
  %83 = load ptr, ptr %16, align 8
  %84 = load i32, ptr %19, align 4
  %85 = sext i32 %84 to i64
  %86 = getelementptr inbounds i32, ptr %83, i64 %85
  %87 = load i32, ptr %86, align 4
  %88 = load ptr, ptr %76, align 8
  %89 = getelementptr inbounds ptr, ptr %88, i64 5
  %90 = load ptr, ptr %89, align 8
  call void %90(ptr noundef nonnull align 8 dereferenceable(8) %76, ptr noundef %82, i32 noundef %87)
  %91 = load ptr, ptr %18, align 8
  %92 = getelementptr inbounds i8, ptr %91, i32 1
  store ptr %92, ptr %18, align 8
  %93 = load ptr, ptr %9, align 8
  %94 = load ptr, ptr %18, align 8
  %95 = load i8, ptr %94, align 1
  %96 = zext i8 %95 to i32
  %97 = mul nsw i32 %96, 3
  %98 = sext i32 %97 to i64
  %99 = getelementptr inbounds [24 x float], ptr %17, i64 0, i64 %98
  %100 = load ptr, ptr %16, align 8
  %101 = load i32, ptr %19, align 4
  %102 = sext i32 %101 to i64
  %103 = getelementptr inbounds i32, ptr %100, i64 %102
  %104 = load i32, ptr %103, align 4
  %105 = load ptr, ptr %93, align 8
  %106 = getelementptr inbounds ptr, ptr %105, i64 5
  %107 = load ptr, ptr %106, align 8
  call void %107(ptr noundef nonnull align 8 dereferenceable(8) %93, ptr noundef %99, i32 noundef %104)
  %108 = load ptr, ptr %18, align 8
  %109 = getelementptr inbounds i8, ptr %108, i32 1
  store ptr %109, ptr %18, align 8
  %110 = load ptr, ptr %9, align 8
  %111 = load ptr, ptr %18, align 8
  %112 = load i8, ptr %111, align 1
  %113 = zext i8 %112 to i32
  %114 = mul nsw i32 %113, 3
  %115 = sext i32 %114 to i64
  %116 = getelementptr inbounds [24 x float], ptr %17, i64 0, i64 %115
  %117 = load ptr, ptr %16, align 8
  %118 = load i32, ptr %19, align 4
  %119 = sext i32 %118 to i64
  %120 = getelementptr inbounds i32, ptr %117, i64 %119
  %121 = load i32, ptr %120, align 4
  %122 = load ptr, ptr %110, align 8
  %123 = getelementptr inbounds ptr, ptr %122, i64 5
  %124 = load ptr, ptr %123, align 8
  call void %124(ptr noundef nonnull align 8 dereferenceable(8) %110, ptr noundef %116, i32 noundef %121)
  %125 = load ptr, ptr %18, align 8
  %126 = getelementptr inbounds i8, ptr %125, i32 1
  store ptr %126, ptr %18, align 8
  %127 = load ptr, ptr %9, align 8
  %128 = load ptr, ptr %18, align 8
  %129 = load i8, ptr %128, align 1
  %130 = zext i8 %129 to i32
  %131 = mul nsw i32 %130, 3
  %132 = sext i32 %131 to i64
  %133 = getelementptr inbounds [24 x float], ptr %17, i64 0, i64 %132
  %134 = load ptr, ptr %16, align 8
  %135 = load i32, ptr %19, align 4
  %136 = sext i32 %135 to i64
  %137 = getelementptr inbounds i32, ptr %134, i64 %136
  %138 = load i32, ptr %137, align 4
  %139 = load ptr, ptr %127, align 8
  %140 = getelementptr inbounds ptr, ptr %139, i64 5
  %141 = load ptr, ptr %140, align 8
  call void %141(ptr noundef nonnull align 8 dereferenceable(8) %127, ptr noundef %133, i32 noundef %138)
  %142 = load ptr, ptr %18, align 8
  %143 = getelementptr inbounds i8, ptr %142, i32 1
  store ptr %143, ptr %18, align 8
  br label %144

144:                                              ; preds = %75
  %145 = load i32, ptr %19, align 4
  %146 = add nsw i32 %145, 1
  store i32 %146, ptr %19, align 4
  br label %72, !llvm.loop !11

147:                                              ; preds = %72, %22
  ret void
}