; Function Attrs: mustprogress uwtable
define void @_Z11duAppendBoxP11duDebugDrawffffffPKj(ptr noundef %0, float noundef %1, float noundef %2, float noundef %3, float noundef %4, float noundef %5, float noundef %6, ptr nocapture noundef readonly %7) local_unnamed_addr #4 {
  %9 = alloca [24 x float], align 16
  %.not = icmp eq ptr %0, null
  br i1 %.not, label %.loopexit, label %10

10:                                               ; preds = %8
  store float %1, ptr %9, align 16
  %11 = getelementptr inbounds i8, ptr %9, i64 4
  store float %2, ptr %11, align 4
  %12 = getelementptr inbounds i8, ptr %9, i64 8
  store float %3, ptr %12, align 8
  %13 = getelementptr inbounds i8, ptr %9, i64 12
  store float %4, ptr %13, align 4
  %14 = getelementptr inbounds i8, ptr %9, i64 16
  store float %2, ptr %14, align 16
  %15 = getelementptr inbounds i8, ptr %9, i64 20
  store float %3, ptr %15, align 4
  %16 = getelementptr inbounds i8, ptr %9, i64 24
  store float %4, ptr %16, align 8
  %17 = getelementptr inbounds i8, ptr %9, i64 28
  store float %2, ptr %17, align 4
  %18 = getelementptr inbounds i8, ptr %9, i64 32
  store float %6, ptr %18, align 16
  %19 = getelementptr inbounds i8, ptr %9, i64 36
  store float %1, ptr %19, align 4
  %20 = getelementptr inbounds i8, ptr %9, i64 40
  store float %2, ptr %20, align 8
  %21 = getelementptr inbounds i8, ptr %9, i64 44
  store float %6, ptr %21, align 4
  %22 = getelementptr inbounds i8, ptr %9, i64 48
  store float %1, ptr %22, align 16
  %23 = getelementptr inbounds i8, ptr %9, i64 52
  store float %5, ptr %23, align 4
  %24 = getelementptr inbounds i8, ptr %9, i64 56
  store float %3, ptr %24, align 8
  %25 = getelementptr inbounds i8, ptr %9, i64 60
  store float %4, ptr %25, align 4
  %26 = getelementptr inbounds i8, ptr %9, i64 64
  store float %5, ptr %26, align 16
  %27 = getelementptr inbounds i8, ptr %9, i64 68
  store float %3, ptr %27, align 4
  %28 = getelementptr inbounds i8, ptr %9, i64 72
  store float %4, ptr %28, align 8
  %29 = getelementptr inbounds i8, ptr %9, i64 76
  store float %5, ptr %29, align 4
  %30 = getelementptr inbounds i8, ptr %9, i64 80
  store float %6, ptr %30, align 16
  %31 = getelementptr inbounds i8, ptr %9, i64 84
  store float %1, ptr %31, align 4
  %32 = getelementptr inbounds i8, ptr %9, i64 88
  store float %5, ptr %32, align 8
  %33 = getelementptr inbounds i8, ptr %9, i64 92
  store float %6, ptr %33, align 4
  br label %34

34:                                               ; preds = %10, %34
  %indvars.iv = phi i64 [ 0, %10 ], [ %indvars.iv.next, %34 ]
  %.04648 = phi ptr [ @_ZZ11duAppendBoxP11duDebugDrawffffffPKjE4inds, %10 ], [ %71, %34 ]
  %35 = load i8, ptr %.04648, align 1
  %36 = zext i8 %35 to i64
  %37 = mul nuw nsw i64 %36, 3
  %38 = getelementptr inbounds [24 x float], ptr %9, i64 0, i64 %37
  %39 = getelementptr inbounds i32, ptr %7, i64 %indvars.iv
  %40 = load i32, ptr %39, align 4
  %41 = load ptr, ptr %0, align 8
  %42 = getelementptr inbounds i8, ptr %41, i64 40
  %43 = load ptr, ptr %42, align 8
  call void %43(ptr noundef nonnull align 8 dereferenceable(8) %0, ptr noundef nonnull %38, i32 noundef %40)
  %44 = getelementptr inbounds i8, ptr %.04648, i64 1
  %45 = load i8, ptr %44, align 1
  %46 = zext i8 %45 to i64
  %47 = mul nuw nsw i64 %46, 3
  %48 = getelementptr inbounds [24 x float], ptr %9, i64 0, i64 %47
  %49 = load i32, ptr %39, align 4
  %50 = load ptr, ptr %0, align 8
  %51 = getelementptr inbounds i8, ptr %50, i64 40
  %52 = load ptr, ptr %51, align 8
  call void %52(ptr noundef nonnull align 8 dereferenceable(8) %0, ptr noundef nonnull %48, i32 noundef %49)
  %53 = getelementptr inbounds i8, ptr %.04648, i64 2
  %54 = load i8, ptr %53, align 1
  %55 = zext i8 %54 to i64
  %56 = mul nuw nsw i64 %55, 3
  %57 = getelementptr inbounds [24 x float], ptr %9, i64 0, i64 %56
  %58 = load i32, ptr %39, align 4
  %59 = load ptr, ptr %0, align 8
  %60 = getelementptr inbounds i8, ptr %59, i64 40
  %61 = load ptr, ptr %60, align 8
  call void %61(ptr noundef nonnull align 8 dereferenceable(8) %0, ptr noundef nonnull %57, i32 noundef %58)
  %62 = getelementptr inbounds i8, ptr %.04648, i64 3
  %63 = load i8, ptr %62, align 1
  %64 = zext i8 %63 to i64
  %65 = mul nuw nsw i64 %64, 3
  %66 = getelementptr inbounds [24 x float], ptr %9, i64 0, i64 %65
  %67 = load i32, ptr %39, align 4
  %68 = load ptr, ptr %0, align 8
  %69 = getelementptr inbounds i8, ptr %68, i64 40
  %70 = load ptr, ptr %69, align 8
  call void %70(ptr noundef nonnull align 8 dereferenceable(8) %0, ptr noundef nonnull %66, i32 noundef %67)
  %71 = getelementptr inbounds i8, ptr %.04648, i64 4
  %indvars.iv.next = add nuw nsw i64 %indvars.iv, 1
  %exitcond.not = icmp eq i64 %indvars.iv.next, 6
  br i1 %exitcond.not, label %.loopexit, label %34, !llvm.loop !11

.loopexit:                                        ; preds = %34, %8
  ret void
}